target datalayout = "e-m:e-p270:32:32-p271:32:32-p272:64:64-i64:64-i128:128-f80:128-n8:16:32:64-S128"
target triple = "x86_64-unknown-linux-gnu"

%"class.folly::Optional" = type { %"struct.folly::Optional<unsigned long>::StorageTriviallyDestructible" }
%"struct.folly::Optional<unsigned long>::StorageTriviallyDestructible" = type <{ %union.anon, i8, [7 x i8] }>
%union.anon = type { i64 }
%"struct.proxygen::http2::PriorityUpdate" = type { i64, i8, i8 }
%"struct.folly::IOBufQueue::Options" = type { i8 }
%"class.proxygen::HTTPTransaction" = type { %"class.folly::HHWheelTimerBase<std::chrono::duration<long, std::ratio<1, 1000>>>::Callback", %"class.folly::DelayedDestructionBase.base", %"class.proxygen::HTTPTransaction::RateLimitCallback", %"class.std::unique_ptr", %"class.folly::IOBufQueue", %"struct.proxygen::HTTPTransaction::BufferMeta", i8, i8, i8, i32, i64, i32, i32, ptr, ptr, ptr, %"struct.proxygen::CompressionInfo", %"class.proxygen::Window", %"class.proxygen::Window", ptr, %"class.std::unique_ptr.12", %"class.std::__cxx11::list", ptr, ptr, %"class.folly::Optional", %"class.folly::Optional.0", %"class.std::set", %"class.std::set", %"struct.proxygen::http2::PriorityUpdate", i64, i64, double, i64, i64, %"class.folly::Optional", %"class.folly::Optional", %"class.folly::Optional", %"class.folly::Optional", i64, %"class.std::map", i24, i16, i64, %"class.std::chrono::time_point", i64, %"class.folly::Optional.27", ptr, i64, i8, %"class.std::map.30", %"class.std::map.35", %"class.proxygen::HTTPTransaction::TxnWebTransport" }
%"class.folly::HHWheelTimerBase<std::chrono::duration<long, std::ratio<1, 1000>>>::Callback" = type { ptr, %"class.boost::intrusive::list_base_hook", ptr, %"class.std::chrono::time_point", i32, %"class.std::shared_ptr" }
%"class.boost::intrusive::list_base_hook" = type { %"class.boost::intrusive::generic_hook" }
%"class.boost::intrusive::generic_hook" = type { %"struct.boost::intrusive::node_holder" }
%"struct.boost::intrusive::node_holder" = type { %"struct.boost::intrusive::list_node" }
%"struct.boost::intrusive::list_node" = type { ptr, ptr }
%"class.std::shared_ptr" = type { %"class.std::__shared_ptr" }
%"class.std::__shared_ptr" = type { ptr, %"class.std::__shared_count" }
%"class.std::__shared_count" = type { ptr }
%"class.folly::DelayedDestructionBase.base" = type <{ ptr, i32 }>
%"class.proxygen::HTTPTransaction::RateLimitCallback" = type { %"class.folly::HHWheelTimerBase<std::chrono::duration<long, std::ratio<1, 1000>>>::Callback", ptr }
%"class.std::unique_ptr" = type { %"struct.std::__uniq_ptr_data" }
%"struct.std::__uniq_ptr_data" = type { %"class.std::__uniq_ptr_impl" }
%"class.std::__uniq_ptr_impl" = type { %"class.std::tuple" }
%"class.std::tuple" = type { %"struct.std::_Tuple_impl" }
%"struct.std::_Tuple_impl" = type { %"struct.std::_Head_base.3" }
%"struct.std::_Head_base.3" = type { ptr }
%"class.folly::IOBufQueue" = type { %"struct.folly::IOBufQueue::Options", i64, %"class.std::unique_ptr.4", ptr, ptr, %"struct.folly::IOBufQueue::WritableRangeCacheData", ptr }
%"class.std::unique_ptr.4" = type { %"struct.std::__uniq_ptr_data.5" }
%"struct.std::__uniq_ptr_data.5" = type { %"class.std::__uniq_ptr_impl.6" }
%"class.std::__uniq_ptr_impl.6" = type { %"class.std::tuple.7" }
%"class.std::tuple.7" = type { %"struct.std::_Tuple_impl.8" }
%"struct.std::_Tuple_impl.8" = type { %"struct.std::_Head_base.11" }
%"struct.std::_Head_base.11" = type { ptr }
%"struct.folly::IOBufQueue::WritableRangeCacheData" = type <{ %"struct.std::pair", i8, [7 x i8] }>
%"struct.std::pair" = type { ptr, ptr }
%"struct.proxygen::HTTPTransaction::BufferMeta" = type { i64 }
%"struct.proxygen::CompressionInfo" = type { %"struct.proxygen::CompressionInfoPart", %"struct.proxygen::CompressionInfoPart" }
%"struct.proxygen::CompressionInfoPart" = type { i32, i32, i32, i32, i32, i32, i32 }
%"class.proxygen::Window" = type { i32, i32 }
%"class.std::unique_ptr.12" = type { %"struct.std::__uniq_ptr_data.13" }
%"struct.std::__uniq_ptr_data.13" = type { %"class.std::__uniq_ptr_impl.14" }
%"class.std::__uniq_ptr_impl.14" = type { %"class.std::tuple.15" }
%"class.std::tuple.15" = type { %"struct.std::_Tuple_impl.16" }
%"struct.std::_Tuple_impl.16" = type { %"struct.std::_Head_base.19" }
%"struct.std::_Head_base.19" = type { ptr }
%"class.std::__cxx11::list" = type { %"class.std::__cxx11::_List_base" }
%"class.std::__cxx11::_List_base" = type { %"struct.std::__cxx11::_List_base<proxygen::HTTPTransaction::Chunk, std::allocator<proxygen::HTTPTransaction::Chunk>>::_List_impl" }
%"struct.std::__cxx11::_List_base<proxygen::HTTPTransaction::Chunk, std::allocator<proxygen::HTTPTransaction::Chunk>>::_List_impl" = type { %"struct.std::__detail::_List_node_header" }
%"struct.std::__detail::_List_node_header" = type { %"struct.std::__detail::_List_node_base", i64 }
%"struct.std::__detail::_List_node_base" = type { ptr, ptr }
%"class.folly::Optional.0" = type { %"struct.folly::Optional<proxygen::HTTPCodec::ExAttributes>::StorageTriviallyDestructible" }
%"struct.folly::Optional<proxygen::HTTPCodec::ExAttributes>::StorageTriviallyDestructible" = type { %union.anon.1, i8, [7 x i8] }
%union.anon.1 = type { %"struct.proxygen::HTTPCodec::ExAttributes" }
%"struct.proxygen::HTTPCodec::ExAttributes" = type <{ i64, i8, [7 x i8] }>
%"class.std::set" = type { %"class.std::_Rb_tree" }
%"class.std::_Rb_tree" = type { %"struct.std::_Rb_tree<unsigned long, unsigned long, std::_Identity<unsigned long>, std::less<unsigned long>>::_Rb_tree_impl" }
%"struct.std::_Rb_tree<unsigned long, unsigned long, std::_Identity<unsigned long>, std::less<unsigned long>>::_Rb_tree_impl" = type { %"struct.std::_Rb_tree_key_compare", %"struct.std::_Rb_tree_header" }
%"struct.std::_Rb_tree_key_compare" = type { %"struct.std::less" }
%"struct.std::less" = type { i8 }
%"struct.std::_Rb_tree_header" = type { %"struct.std::_Rb_tree_node_base", i64 }
%"struct.std::_Rb_tree_node_base" = type { i32, ptr, ptr, ptr }
%"class.std::map" = type { %"class.std::_Rb_tree.23" }
%"class.std::_Rb_tree.23" = type { %"struct.std::_Rb_tree<unsigned long, std::pair<const unsigned long, proxygen::ByteEvent::EventFlags>, std::_Select1st<std::pair<const unsigned long, proxygen::ByteEvent::EventFlags>>, std::less<unsigned long>>::_Rb_tree_impl" }
%"struct.std::_Rb_tree<unsigned long, std::pair<const unsigned long, proxygen::ByteEvent::EventFlags>, std::_Select1st<std::pair<const unsigned long, proxygen::ByteEvent::EventFlags>>, std::less<unsigned long>>::_Rb_tree_impl" = type { %"struct.std::_Rb_tree_key_compare", %"struct.std::_Rb_tree_header" }
%"class.std::chrono::time_point" = type { %"class.std::chrono::duration" }
%"class.std::chrono::duration" = type { i64 }
%"class.folly::Optional.27" = type { %"struct.folly::Optional<std::chrono::duration<long, std::ratio<1, 1000>>>::StorageTriviallyDestructible" }
%"struct.folly::Optional<std::chrono::duration<long, std::ratio<1, 1000>>>::StorageTriviallyDestructible" = type <{ %union.anon.28, i8, [7 x i8] }>
%union.anon.28 = type { %"class.std::chrono::duration.29" }
%"class.std::chrono::duration.29" = type { i64 }
%"class.std::map.30" = type { %"class.std::_Rb_tree.31" }
%"class.std::_Rb_tree.31" = type { %"struct.std::_Rb_tree<unsigned long, std::pair<const unsigned long, proxygen::HTTPTransaction::TxnStreamWriteHandle>, std::_Select1st<std::pair<const unsigned long, proxygen::HTTPTransaction::TxnStreamWriteHandle>>, std::less<unsigned long>>::_Rb_tree_impl" }
%"struct.std::_Rb_tree<unsigned long, std::pair<const unsigned long, proxygen::HTTPTransaction::TxnStreamWriteHandle>, std::_Select1st<std::pair<const unsigned long, proxygen::HTTPTransaction::TxnStreamWriteHandle>>, std::less<unsigned long>>::_Rb_tree_impl" = type { %"struct.std::_Rb_tree_key_compare", %"struct.std::_Rb_tree_header" }
%"class.std::map.35" = type { %"class.std::_Rb_tree.36" }
%"class.std::_Rb_tree.36" = type { %"struct.std::_Rb_tree<unsigned long, std::pair<const unsigned long, proxygen::HTTPTransaction::TxnStreamReadHandle>, std::_Select1st<std::pair<const unsigned long, proxygen::HTTPTransaction::TxnStreamReadHandle>>, std::less<unsigned long>>::_Rb_tree_impl" }
%"struct.std::_Rb_tree<unsigned long, std::pair<const unsigned long, proxygen::HTTPTransaction::TxnStreamReadHandle>, std::_Select1st<std::pair<const unsigned long, proxygen::HTTPTransaction::TxnStreamReadHandle>>, std::less<unsigned long>>::_Rb_tree_impl" = type { %"struct.std::_Rb_tree_key_compare", %"struct.std::_Rb_tree_header" }
%"class.proxygen::HTTPTransaction::TxnWebTransport" = type { %"class.proxygen::WebTransport", ptr }
%"class.proxygen::WebTransport" = type { ptr }

; Function Attrs: mustprogress uwtable
define void @_ZN8proxygen15HTTPTransaction21updateAndSendPriorityERKNS_5http214PriorityUpdateE(ptr noundef nonnull align 8 dereferenceable(912) %this, ptr noundef nonnull align 8 dereferenceable(16) %newPriority) #4 align 2 {
entry:
  %this.addr = alloca ptr, align 8
  %newPriority.addr = alloca ptr, align 8
  store ptr %this, ptr %this.addr, align 8
  store ptr %newPriority, ptr %newPriority.addr, align 8
  %this1 = load ptr, ptr %this.addr, align 8
  %0 = load ptr, ptr %newPriority.addr, align 8
  call void @_ZN8proxygen15HTTPTransaction16onPriorityUpdateERKNS_5http214PriorityUpdateE(ptr noundef nonnull align 8 dereferenceable(912) %this1, ptr noundef nonnull align 8 dereferenceable(16) %0)
  %transport_ = getelementptr inbounds %"class.proxygen::HTTPTransaction", ptr %this1, i32 0, i32 14
  %1 = load ptr, ptr %transport_, align 8
  %priority_ = getelementptr inbounds %"class.proxygen::HTTPTransaction", ptr %this1, i32 0, i32 28
  %vtable = load ptr, ptr %1, align 8
  %vfn = getelementptr inbounds ptr, ptr %vtable, i64 13
  %2 = load ptr, ptr %vfn, align 8
  %call = call noundef i64 %2(ptr noundef nonnull align 8 dereferenceable(8) %1, ptr noundef %this1, ptr noundef nonnull align 8 dereferenceable(16) %priority_) #3
  ret void
}