; Function Attrs: mustprogress uwtable
define void @_ZN8proxygen15HTTPTransaction21updateAndSendPriorityERKNS_5http214PriorityUpdateE(ptr noundef nonnull align 8 dereferenceable(912) %this, ptr nocapture noundef nonnull readonly align 8 dereferenceable(16) %newPriority) local_unnamed_addr #3 align 2 {
entry:
  tail call void @_ZN8proxygen15HTTPTransaction16onPriorityUpdateERKNS_5http214PriorityUpdateE(ptr noundef nonnull align 8 dereferenceable(912) %this, ptr noundef nonnull align 8 dereferenceable(16) %newPriority)
  %transport_ = getelementptr inbounds i8, ptr %this, i64 272
  %0 = load ptr, ptr %transport_, align 8
  %priority_ = getelementptr inbounds i8, ptr %this, i64 552
  %vtable = load ptr, ptr %0, align 8
  %vfn = getelementptr inbounds i8, ptr %vtable, i64 104
  %1 = load ptr, ptr %vfn, align 8
  %call = tail call noundef i64 %1(ptr noundef nonnull align 8 dereferenceable(8) %0, ptr noundef nonnull %this, ptr noundef nonnull align 8 dereferenceable(16) %priority_) #27
  ret void
}